; Function Attrs: mustprogress nounwind uwtable
define hidden void @_ZN15mk_extract_procD2Ev(ptr nocapture noundef nonnull readonly align 8 dereferenceable(32) %this) unnamed_addr #4 align 2 personality ptr @__gxx_personality_v0 {
entry:
  %m_f_cached = getelementptr inbounds i8, ptr %this, i64 24
  %0 = load ptr, ptr %m_f_cached, align 8
  %tobool.not = icmp eq ptr %0, null
  br i1 %tobool.not, label %if.end, label %if.then.i

if.then.i:                                        ; preds = %entry
  %1 = load ptr, ptr %this, align 8
  %m_manager.i = getelementptr inbounds i8, ptr %1, i64 8
  %2 = load ptr, ptr %m_manager.i, align 8
  %m_ref_count.i.i = getelementptr inbounds i8, ptr %0, i64 8
  %3 = load i32, ptr %m_ref_count.i.i, align 4
  %dec.i.i = add i32 %3, -1
  store i32 %dec.i.i, ptr %m_ref_count.i.i, align 4
  %cmp.i = icmp eq i32 %dec.i.i, 0
  br i1 %cmp.i, label %if.then2.i, label %if.end

if.then2.i:                                       ; preds = %if.then.i
  invoke void @_ZN11ast_manager11delete_nodeEP3ast(ptr noundef nonnull align 8 dereferenceable(976) %2, ptr noundef nonnull %0)
          to label %if.end unwind label %terminate.lpad

if.end:                                           ; preds = %if.then.i, %if.then2.i, %entry
  ret void

terminate.lpad:                                   ; preds = %if.then2.i
  %4 = landingpad { ptr, i32 }
          catch ptr null
  %5 = extractvalue { ptr, i32 } %4, 0
  tail call void @__clang_call_terminate(ptr %5) #11
  unreachable
}